target datalayout = "e-m:e-p270:32:32-p271:32:32-p272:64:64-i64:64-i128:128-f80:128-n8:16:32:64-S128"
target triple = "x86_64-pc-linux-gnu"

%"class.duckdb_apache::thrift::TBase" = type { ptr }
%"class.duckdb_parquet::BloomFilterCompression" = type <{ %"class.duckdb_apache::thrift::TBase", %"class.duckdb_parquet::Uncompressed", %"struct.duckdb_parquet::_BloomFilterCompression__isset", [7 x i8] }>
%"class.duckdb_parquet::Uncompressed" = type { %"class.duckdb_apache::thrift::TBase" }
%"struct.duckdb_parquet::_BloomFilterCompression__isset" = type { i8 }

; Function Attrs: noinline noreturn nounwind uwtable
define linkonce_odr hidden void @__clang_call_terminate(ptr noundef %0) #10 comdat {
  %2 = call ptr @__cxa_begin_catch(ptr %0) #3
  call void @_ZSt9terminatev() #21
  unreachable
}

; Function Attrs: mustprogress nounwind uwtable
define noundef nonnull align 8 dereferenceable(8) ptr @_ZN14duckdb_parquet12UncompressedaSERKS0_(ptr noundef nonnull align 8 dereferenceable(8) %0, ptr noundef nonnull align 8 dereferenceable(8) %1) #1 align 2 {
  %3 = alloca ptr, align 8
  %4 = alloca ptr, align 8
  store ptr %0, ptr %3, align 8, !tbaa !296
  store ptr %1, ptr %4, align 8, !tbaa !296
  %5 = load ptr, ptr %3, align 8
  ret ptr %5
}

; Function Attrs: mustprogress nounwind uwtable
define linkonce_odr void @_ZN14duckdb_parquet30_BloomFilterCompression__issetC2Ev(ptr noundef nonnull align 1 dereferenceable(1) %0) unnamed_addr #1 comdat align 2 {
  %2 = alloca ptr, align 8
  store ptr %0, ptr %2, align 8, !tbaa !301
  %3 = load ptr, ptr %2, align 8
  %4 = load i8, ptr %3, align 1
  %5 = and i8 %4, -2
  %6 = or i8 %5, 0
  store i8 %6, ptr %3, align 1
  ret void
}

; Function Attrs: mustprogress nounwind uwtable
define void @_ZN14duckdb_parquet12UncompressedC1Ev(ptr noundef nonnull align 8 dereferenceable(8) %0) unnamed_addr #1 align 2 {
  %2 = alloca ptr, align 8
  store ptr %0, ptr %2, align 8, !tbaa !296
  %3 = load ptr, ptr %2, align 8
  call void @_ZN13duckdb_apache6thrift5TBaseC2Ev(ptr noundef nonnull align 8 dereferenceable(8) %3) #3
  store ptr getelementptr inbounds inrange(-48, 40) ({ [11 x ptr] }, ptr @_ZTVN14duckdb_parquet12UncompressedE, i32 0, i32 0, i32 6), ptr %3, align 8, !tbaa !36
  store ptr getelementptr inbounds inrange(-48, 40) ({ [11 x ptr] }, ptr @_ZTVN14duckdb_parquet12UncompressedE, i32 0, i32 0, i32 6), ptr %3, align 8, !tbaa !36
  ret void
}

; Function Attrs: inlinehint mustprogress nounwind uwtable
define linkonce_odr void @_ZN13duckdb_apache6thrift5TBaseC2Ev(ptr noundef nonnull align 8 dereferenceable(8) %0) unnamed_addr #7 comdat align 2 {
  %2 = alloca ptr, align 8
  store ptr %0, ptr %2, align 8, !tbaa !76
  %3 = load ptr, ptr %2, align 8
  store ptr getelementptr inbounds inrange(-16, 32) ({ [6 x ptr] }, ptr @_ZTVN13duckdb_apache6thrift5TBaseE, i32 0, i32 0, i32 2), ptr %3, align 8, !tbaa !36
  ret void
}

; Function Attrs: mustprogress nounwind uwtable
define void @_ZN14duckdb_parquet22BloomFilterCompressionC1ERKS0_(ptr noundef nonnull align 8 dereferenceable(17) %0, ptr noundef nonnull align 8 dereferenceable(17) %1) unnamed_addr #1 align 2 personality ptr @__gxx_personality_v0 {
  %3 = alloca ptr, align 8
  %4 = alloca ptr, align 8
  store ptr %0, ptr %3, align 8, !tbaa !299
  store ptr %1, ptr %4, align 8, !tbaa !299
  %5 = load ptr, ptr %3, align 8
  call void @_ZN13duckdb_apache6thrift5TBaseC2Ev(ptr noundef nonnull align 8 dereferenceable(8) %5) #3
  store ptr getelementptr inbounds inrange(-48, 40) ({ [11 x ptr] }, ptr @_ZTVN14duckdb_parquet22BloomFilterCompressionE, i32 0, i32 0, i32 6), ptr %5, align 8, !tbaa !36
  store ptr getelementptr inbounds inrange(-48, 40) ({ [11 x ptr] }, ptr @_ZTVN14duckdb_parquet22BloomFilterCompressionE, i32 0, i32 0, i32 6), ptr %5, align 8, !tbaa !36
  %6 = getelementptr inbounds nuw %"class.duckdb_parquet::BloomFilterCompression", ptr %5, i32 0, i32 1
  call void @_ZN14duckdb_parquet12UncompressedC1Ev(ptr noundef nonnull align 8 dereferenceable(8) %6) #3
  %7 = getelementptr inbounds nuw %"class.duckdb_parquet::BloomFilterCompression", ptr %5, i32 0, i32 2
  invoke void @_ZN14duckdb_parquet30_BloomFilterCompression__issetC2Ev(ptr noundef nonnull align 1 dereferenceable(1) %7)
          to label %8 unwind label %16

8:                                                ; preds = %2
  %9 = load ptr, ptr %4, align 8, !tbaa !299
  %10 = getelementptr inbounds nuw %"class.duckdb_parquet::BloomFilterCompression", ptr %9, i32 0, i32 1
  %11 = getelementptr inbounds nuw %"class.duckdb_parquet::BloomFilterCompression", ptr %5, i32 0, i32 1
  %12 = call noundef nonnull align 8 dereferenceable(8) ptr @_ZN14duckdb_parquet12UncompressedaSERKS0_(ptr noundef nonnull align 8 dereferenceable(8) %11, ptr noundef nonnull align 8 dereferenceable(8) %10) #3
  %13 = load ptr, ptr %4, align 8, !tbaa !299
  %14 = getelementptr inbounds nuw %"class.duckdb_parquet::BloomFilterCompression", ptr %13, i32 0, i32 2
  %15 = getelementptr inbounds nuw %"class.duckdb_parquet::BloomFilterCompression", ptr %5, i32 0, i32 2
  call void @llvm.memcpy.p0.p0.i64(ptr align 8 %15, ptr align 8 %14, i64 1, i1 false), !tbaa.struct !111
  ret void

16:                                               ; preds = %2
  %17 = landingpad { ptr, i32 }
          catch ptr null
  %18 = extractvalue { ptr, i32 } %17, 0
  call void @__clang_call_terminate(ptr %18) #21
  unreachable
}