; Function Attrs: mustprogress nofree norecurse nosync nounwind willreturn memory(argmem: readwrite) uwtable
define void @_ZN14duckdb_parquet22BloomFilterCompressionC1ERKS0_(ptr noundef nonnull align 8 captures(none) dereferenceable(17) initializes((0, 16)) %0, ptr noundef nonnull readonly align 8 captures(none) dereferenceable(17) %1) unnamed_addr #10 align 2 personality ptr @__gxx_personality_v0 {
  store ptr getelementptr inbounds nuw inrange(-48, 40) (i8, ptr @_ZTVN14duckdb_parquet22BloomFilterCompressionE, i64 48), ptr %0, align 8, !tbaa !22
  %3 = getelementptr inbounds nuw i8, ptr %0, i64 8
  store ptr getelementptr inbounds nuw inrange(-48, 40) (i8, ptr @_ZTVN14duckdb_parquet12UncompressedE, i64 48), ptr %3, align 8, !tbaa !22
  %4 = getelementptr inbounds nuw i8, ptr %0, i64 16
  %5 = load i8, ptr %4, align 8
  %6 = and i8 %5, -2
  store i8 %6, ptr %4, align 8
  %7 = getelementptr inbounds nuw i8, ptr %1, i64 16
  %8 = load i8, ptr %7, align 8, !tbaa !38
  store i8 %8, ptr %4, align 8, !tbaa !38
  ret void
}